target datalayout = "e-m:e-p270:32:32-p271:32:32-p272:64:64-i64:64-i128:128-f80:128-n8:16:32:64-S128"
target triple = "x86_64-pc-linux-gnu"

%struct.PaAlsaStream = type { %struct.PaUtilStreamRepresentation, %struct.PaUtilCpuLoadMeasurer, %struct.PaUtilBufferProcessor, %struct.PaUnixThread, i64, i64, i32, i32, i32, i32, ptr, i32, i32, i32, i32, %struct.PaUnixMutex, i32, double, double, %struct.PaAlsaStreamComponent, %struct.PaAlsaStreamComponent }
%struct.PaUtilStreamRepresentation = type { i64, ptr, ptr, ptr, ptr, ptr, %struct.PaStreamInfo }
%struct.PaStreamInfo = type { i32, double, double, double }
%struct.PaUtilCpuLoadMeasurer = type { double, double, double }
%struct.PaUtilBufferProcessor = type { i64, i64, i32, i32, i32, i32, i64, i32, i32, i32, i32, ptr, ptr, i32, i32, i32, i32, ptr, ptr, i64, i64, ptr, ptr, i64, ptr, ptr, i64, ptr, i64, i32, [2 x i64], [2 x ptr], i32, [2 x i64], [2 x ptr], %struct.PaUtilTriangularDitherGenerator, double, ptr, ptr }
%struct.PaUtilTriangularDitherGenerator = type { i32, i32, i32 }
%struct.PaUnixThread = type { i64, i32, i32, i32, %struct.PaUnixMutex, %union.pthread_cond_t, i32, i32 }
%union.pthread_cond_t = type { %struct.__pthread_cond_s }
%struct.__pthread_cond_s = type { %union.__atomic_wide_counter, %union.__atomic_wide_counter, [2 x i32], [2 x i32], i32, i32, [2 x i32] }
%union.__atomic_wide_counter = type { i64 }
%struct.PaUnixMutex = type { %union.pthread_mutex_t }
%union.pthread_mutex_t = type { %struct.__pthread_mutex_s }
%struct.__pthread_mutex_s = type { i32, i32, i32, i32, i32, i16, i16, %struct.__pthread_internal_list }
%struct.__pthread_internal_list = type { ptr, ptr }
%struct.PaAlsaStreamComponent = type { i64, i32, i32, i32, i32, i32, ptr, i32, i32, i32, i32, ptr, i64, i64, i32, i32, i32, ptr, i64, i32, ptr }

@paUtilErr_ = internal global i32 0, align 4
@alsa_snd_pcm_start = internal global ptr null, align 8
@alsa_snd_pcm_state = internal global ptr null, align 8
@alsa_snd_strerror = internal global ptr null, align 8
@paUnixMainThread = external global i64, align 8
@.str.212 = private unnamed_addr constant [188 x i8] c"Expression 'stream->capture.pcm' failed in 'generated/home/dtcxzyw/WorkSpace/Projects/compilers/llvm-opt-benchmark/bench/portaudio/portaudio/src/hostapi/alsa/pa_linux_alsa.c', line: 4453\0A\00", align 1
@.str.213 = private unnamed_addr constant [210 x i8] c"Expression 'alsa_snd_pcm_start( stream->capture.pcm )' failed in 'generated/home/dtcxzyw/WorkSpace/Projects/compilers/llvm-opt-benchmark/bench/portaudio/portaudio/src/hostapi/alsa/pa_linux_alsa.c', line: 4478\0A\00", align 1
@.str.214 = private unnamed_addr constant [226 x i8] c"Expression 'PaAlsaStream_WaitForFrames( stream, &framesAvail, &xrun )' failed in 'generated/home/dtcxzyw/WorkSpace/Projects/compilers/llvm-opt-benchmark/bench/portaudio/portaudio/src/hostapi/alsa/pa_linux_alsa.c', line: 4484\0A\00", align 1
@.str.215 = private unnamed_addr constant [223 x i8] c"Expression 'PaAlsaStream_SetUpBuffers( stream, &framesGot, &xrun )' failed in 'generated/home/dtcxzyw/WorkSpace/Projects/compilers/llvm-opt-benchmark/bench/portaudio/portaudio/src/hostapi/alsa/pa_linux_alsa.c', line: 4487\0A\00", align 1
@.str.216 = private unnamed_addr constant [223 x i8] c"Expression 'PaAlsaStream_EndProcessing( stream, framesGot, &xrun )' failed in 'generated/home/dtcxzyw/WorkSpace/Projects/compilers/llvm-opt-benchmark/bench/portaudio/portaudio/src/hostapi/alsa/pa_linux_alsa.c', line: 4491\0A\00", align 1

; Function Attrs: inlinehint nounwind willreturn memory(none) uwtable
define available_externally i32 @pthread_equal(i64 noundef %0, i64 noundef %1) #8 {
  %3 = alloca i64, align 8
  %4 = alloca i64, align 8
  store i64 %0, ptr %3, align 8, !tbaa !37
  store i64 %1, ptr %4, align 8, !tbaa !37
  %5 = load i64, ptr %3, align 8, !tbaa !37
  %6 = load i64, ptr %4, align 8, !tbaa !37
  %7 = icmp eq i64 %5, %6
  %8 = zext i1 %7 to i32
  ret i32 %8
}

; Function Attrs: nounwind uwtable
define internal i32 @ReadStream(ptr noundef %0, ptr noundef %1, i64 noundef %2) #0 {
  %4 = alloca i32, align 4
  %5 = alloca ptr, align 8
  %6 = alloca ptr, align 8
  %7 = alloca i64, align 8
  %8 = alloca i32, align 4
  %9 = alloca ptr, align 8
  %10 = alloca i64, align 8
  %11 = alloca i64, align 8
  %12 = alloca ptr, align 8
  %13 = alloca ptr, align 8
  %14 = alloca i32, align 4
  %15 = alloca i32, align 4
  %16 = alloca i32, align 4
  store ptr %0, ptr %5, align 8, !tbaa !32
  store ptr %1, ptr %6, align 8, !tbaa !32
  store i64 %2, ptr %7, align 8, !tbaa !37
  call void @llvm.lifetime.start.p0(i64 4, ptr %8) #17
  store i32 0, ptr %8, align 4, !tbaa !8
  call void @llvm.lifetime.start.p0(i64 8, ptr %9) #17
  %17 = load ptr, ptr %5, align 8, !tbaa !32
  store ptr %17, ptr %9, align 8, !tbaa !38
  call void @llvm.lifetime.start.p0(i64 8, ptr %10) #17
  call void @llvm.lifetime.start.p0(i64 8, ptr %11) #17
  call void @llvm.lifetime.start.p0(i64 8, ptr %12) #17
  call void @llvm.lifetime.start.p0(i64 8, ptr %13) #17
  %18 = load ptr, ptr %9, align 8, !tbaa !38
  %19 = getelementptr inbounds nuw %struct.PaAlsaStream, ptr %18, i32 0, i32 20
  %20 = getelementptr inbounds nuw %struct.PaAlsaStreamComponent, ptr %19, i32 0, i32 11
  %21 = load ptr, ptr %20, align 8, !tbaa !101
  store ptr %21, ptr %13, align 8, !tbaa !102
  br label %22

22:                                               ; preds = %3
  %23 = load ptr, ptr %9, align 8, !tbaa !38
  %24 = getelementptr inbounds nuw %struct.PaAlsaStream, ptr %23, i32 0, i32 19
  %25 = getelementptr inbounds nuw %struct.PaAlsaStreamComponent, ptr %24, i32 0, i32 11
  %26 = load ptr, ptr %25, align 8, !tbaa !100
  %27 = icmp eq ptr %26, null
  %28 = zext i1 %27 to i32
  %29 = sext i32 %28 to i64
  %30 = call i64 @llvm.expect.i64(i64 %29, i64 0)
  %31 = icmp ne i64 %30, 0
  br i1 %31, label %32, label %33

32:                                               ; preds = %22
  call void (ptr, ...) @PaUtil_DebugPrint(ptr noundef @.str.212)
  store i32 -9975, ptr %8, align 4, !tbaa !8
  br label %181

33:                                               ; preds = %22
  br label %34

34:                                               ; preds = %33
  br label %35

35:                                               ; preds = %34
  %36 = load ptr, ptr %9, align 8, !tbaa !38
  %37 = getelementptr inbounds nuw %struct.PaAlsaStream, ptr %36, i32 0, i32 20
  %38 = getelementptr inbounds nuw %struct.PaAlsaStreamComponent, ptr %37, i32 0, i32 11
  store ptr null, ptr %38, align 8, !tbaa !101
  %39 = load ptr, ptr %9, align 8, !tbaa !38
  %40 = getelementptr inbounds nuw %struct.PaAlsaStream, ptr %39, i32 0, i32 18
  %41 = load double, ptr %40, align 8, !tbaa !103
  %42 = fcmp ogt double %41, 0.000000e+00
  br i1 %42, label %43, label %46

43:                                               ; preds = %35
  store i32 -9981, ptr %8, align 4, !tbaa !8
  %44 = load ptr, ptr %9, align 8, !tbaa !38
  %45 = getelementptr inbounds nuw %struct.PaAlsaStream, ptr %44, i32 0, i32 18
  store double 0.000000e+00, ptr %45, align 8, !tbaa !103
  br label %46

46:                                               ; preds = %43, %35
  %47 = load ptr, ptr %9, align 8, !tbaa !38
  %48 = getelementptr inbounds nuw %struct.PaAlsaStream, ptr %47, i32 0, i32 19
  %49 = getelementptr inbounds nuw %struct.PaAlsaStreamComponent, ptr %48, i32 0, i32 3
  %50 = load i32, ptr %49, align 8, !tbaa !104
  %51 = icmp ne i32 %50, 0
  br i1 %51, label %52, label %54

52:                                               ; preds = %46
  %53 = load ptr, ptr %6, align 8, !tbaa !32
  store ptr %53, ptr %12, align 8, !tbaa !32
  br label %67

54:                                               ; preds = %46
  %55 = load ptr, ptr %9, align 8, !tbaa !38
  %56 = getelementptr inbounds nuw %struct.PaAlsaStream, ptr %55, i32 0, i32 19
  %57 = getelementptr inbounds nuw %struct.PaAlsaStreamComponent, ptr %56, i32 0, i32 17
  %58 = load ptr, ptr %57, align 8, !tbaa !105
  store ptr %58, ptr %12, align 8, !tbaa !32
  %59 = load ptr, ptr %12, align 8, !tbaa !32
  %60 = load ptr, ptr %6, align 8, !tbaa !32
  %61 = load ptr, ptr %9, align 8, !tbaa !38
  %62 = getelementptr inbounds nuw %struct.PaAlsaStream, ptr %61, i32 0, i32 19
  %63 = getelementptr inbounds nuw %struct.PaAlsaStreamComponent, ptr %62, i32 0, i32 1
  %64 = load i32, ptr %63, align 8, !tbaa !106
  %65 = sext i32 %64 to i64
  %66 = mul i64 8, %65
  call void @llvm.memcpy.p0.p0.i64(ptr align 1 %59, ptr align 1 %60, i64 %66, i1 false)
  br label %67

67:                                               ; preds = %54, %52
  %68 = load ptr, ptr @alsa_snd_pcm_state, align 8, !tbaa !32
  %69 = load ptr, ptr %9, align 8, !tbaa !38
  %70 = getelementptr inbounds nuw %struct.PaAlsaStream, ptr %69, i32 0, i32 19
  %71 = getelementptr inbounds nuw %struct.PaAlsaStreamComponent, ptr %70, i32 0, i32 11
  %72 = load ptr, ptr %71, align 8, !tbaa !100
  %73 = call i32 %68(ptr noundef %72)
  %74 = icmp eq i32 %73, 2
  br i1 %74, label %75, label %106

75:                                               ; preds = %67
  br label %76

76:                                               ; preds = %75
  call void @llvm.lifetime.start.p0(i64 4, ptr %14) #17
  %77 = load ptr, ptr @alsa_snd_pcm_start, align 8, !tbaa !32
  %78 = load ptr, ptr %9, align 8, !tbaa !38
  %79 = getelementptr inbounds nuw %struct.PaAlsaStream, ptr %78, i32 0, i32 19
  %80 = getelementptr inbounds nuw %struct.PaAlsaStreamComponent, ptr %79, i32 0, i32 11
  %81 = load ptr, ptr %80, align 8, !tbaa !100
  %82 = call i32 %77(ptr noundef %81)
  store i32 %82, ptr %14, align 4, !tbaa !8
  %83 = icmp slt i32 %82, 0
  %84 = zext i1 %83 to i32
  %85 = sext i32 %84 to i64
  %86 = call i64 @llvm.expect.i64(i64 %85, i64 0)
  %87 = icmp ne i64 %86, 0
  br i1 %87, label %88, label %100

88:                                               ; preds = %76
  %89 = call i64 @pthread_self() #20
  %90 = load i64, ptr @paUnixMainThread, align 8, !tbaa !37
  %91 = call i32 @pthread_equal(i64 noundef %89, i64 noundef %90) #20
  %92 = icmp ne i32 %91, 0
  br i1 %92, label %93, label %99

93:                                               ; preds = %88
  %94 = load i32, ptr %14, align 4, !tbaa !8
  %95 = sext i32 %94 to i64
  %96 = load ptr, ptr @alsa_snd_strerror, align 8, !tbaa !32
  %97 = load i32, ptr %14, align 4, !tbaa !8
  %98 = call ptr %96(i32 noundef %97)
  call void @PaUtil_SetLastHostErrorInfo(i32 noundef 8, i64 noundef %95, ptr noundef %98)
  br label %99

99:                                               ; preds = %93, %88
  call void (ptr, ...) @PaUtil_DebugPrint(ptr noundef @.str.213)
  store i32 -9999, ptr %8, align 4, !tbaa !8
  store i32 4, ptr %15, align 4
  br label %101

100:                                              ; preds = %76
  store i32 0, ptr %15, align 4
  br label %101

101:                                              ; preds = %99, %100
  call void @llvm.lifetime.end.p0(i64 4, ptr %14) #17
  %102 = load i32, ptr %15, align 4
  switch i32 %102, label %182 [
    i32 0, label %103
    i32 4, label %181
  ]

103:                                              ; preds = %101
  br label %104

104:                                              ; preds = %103
  br label %105

105:                                              ; preds = %104
  br label %106

106:                                              ; preds = %105, %67
  br label %107

107:                                              ; preds = %173, %106
  %108 = load i64, ptr %7, align 8, !tbaa !37
  %109 = icmp ugt i64 %108, 0
  br i1 %109, label %110, label %174

110:                                              ; preds = %107
  call void @llvm.lifetime.start.p0(i64 4, ptr %16) #17
  store i32 0, ptr %16, align 4, !tbaa !8
  br label %111

111:                                              ; preds = %110
  %112 = load ptr, ptr %9, align 8, !tbaa !38
  %113 = call i32 @PaAlsaStream_WaitForFrames(ptr noundef %112, ptr noundef %11, ptr noundef %16)
  store i32 %113, ptr @paUtilErr_, align 4, !tbaa !8
  %114 = icmp slt i32 %113, 0
  %115 = zext i1 %114 to i32
  %116 = sext i32 %115 to i64
  %117 = call i64 @llvm.expect.i64(i64 %116, i64 0)
  %118 = icmp ne i64 %117, 0
  br i1 %118, label %119, label %121

119:                                              ; preds = %111
  call void (ptr, ...) @PaUtil_DebugPrint(ptr noundef @.str.214)
  %120 = load i32, ptr @paUtilErr_, align 4, !tbaa !8
  store i32 %120, ptr %8, align 4, !tbaa !8
  store i32 4, ptr %15, align 4
  br label %171

121:                                              ; preds = %111
  br label %122

122:                                              ; preds = %121
  br label %123

123:                                              ; preds = %122
  %124 = load i64, ptr %11, align 8, !tbaa !37
  %125 = load i64, ptr %7, align 8, !tbaa !37
  %126 = icmp ult i64 %124, %125
  br i1 %126, label %127, label %129

127:                                              ; preds = %123
  %128 = load i64, ptr %11, align 8, !tbaa !37
  br label %131

129:                                              ; preds = %123
  %130 = load i64, ptr %7, align 8, !tbaa !37
  br label %131

131:                                              ; preds = %129, %127
  %132 = phi i64 [ %128, %127 ], [ %130, %129 ]
  store i64 %132, ptr %10, align 8, !tbaa !37
  br label %133

133:                                              ; preds = %131
  %134 = load ptr, ptr %9, align 8, !tbaa !38
  %135 = call i32 @PaAlsaStream_SetUpBuffers(ptr noundef %134, ptr noundef %10, ptr noundef %16)
  store i32 %135, ptr @paUtilErr_, align 4, !tbaa !8
  %136 = icmp slt i32 %135, 0
  %137 = zext i1 %136 to i32
  %138 = sext i32 %137 to i64
  %139 = call i64 @llvm.expect.i64(i64 %138, i64 0)
  %140 = icmp ne i64 %139, 0
  br i1 %140, label %141, label %143

141:                                              ; preds = %133
  call void (ptr, ...) @PaUtil_DebugPrint(ptr noundef @.str.215)
  %142 = load i32, ptr @paUtilErr_, align 4, !tbaa !8
  store i32 %142, ptr %8, align 4, !tbaa !8
  store i32 4, ptr %15, align 4
  br label %171

143:                                              ; preds = %133
  br label %144

144:                                              ; preds = %143
  br label %145

145:                                              ; preds = %144
  %146 = load i64, ptr %10, align 8, !tbaa !37
  %147 = icmp ugt i64 %146, 0
  br i1 %147, label %148, label %170

148:                                              ; preds = %145
  %149 = load ptr, ptr %9, align 8, !tbaa !38
  %150 = getelementptr inbounds nuw %struct.PaAlsaStream, ptr %149, i32 0, i32 2
  %151 = load i64, ptr %10, align 8, !tbaa !37
  %152 = call i64 @PaUtil_CopyInput(ptr noundef %150, ptr noundef %12, i64 noundef %151)
  store i64 %152, ptr %10, align 8, !tbaa !37
  br label %153

153:                                              ; preds = %148
  %154 = load ptr, ptr %9, align 8, !tbaa !38
  %155 = load i64, ptr %10, align 8, !tbaa !37
  %156 = call i32 @PaAlsaStream_EndProcessing(ptr noundef %154, i64 noundef %155, ptr noundef %16)
  store i32 %156, ptr @paUtilErr_, align 4, !tbaa !8
  %157 = icmp slt i32 %156, 0
  %158 = zext i1 %157 to i32
  %159 = sext i32 %158 to i64
  %160 = call i64 @llvm.expect.i64(i64 %159, i64 0)
  %161 = icmp ne i64 %160, 0
  br i1 %161, label %162, label %164

162:                                              ; preds = %153
  call void (ptr, ...) @PaUtil_DebugPrint(ptr noundef @.str.216)
  %163 = load i32, ptr @paUtilErr_, align 4, !tbaa !8
  store i32 %163, ptr %8, align 4, !tbaa !8
  store i32 4, ptr %15, align 4
  br label %171

164:                                              ; preds = %153
  br label %165

165:                                              ; preds = %164
  br label %166

166:                                              ; preds = %165
  %167 = load i64, ptr %10, align 8, !tbaa !37
  %168 = load i64, ptr %7, align 8, !tbaa !37
  %169 = sub i64 %168, %167
  store i64 %169, ptr %7, align 8, !tbaa !37
  br label %170

170:                                              ; preds = %166, %145
  store i32 0, ptr %15, align 4
  br label %171

171:                                              ; preds = %162, %141, %119, %170
  call void @llvm.lifetime.end.p0(i64 4, ptr %16) #17
  %172 = load i32, ptr %15, align 4
  switch i32 %172, label %182 [
    i32 0, label %173
    i32 4, label %181
  ]

173:                                              ; preds = %171
  br label %107, !llvm.loop !107

174:                                              ; preds = %107
  br label %175

175:                                              ; preds = %181, %174
  %176 = load ptr, ptr %13, align 8, !tbaa !102
  %177 = load ptr, ptr %9, align 8, !tbaa !38
  %178 = getelementptr inbounds nuw %struct.PaAlsaStream, ptr %177, i32 0, i32 20
  %179 = getelementptr inbounds nuw %struct.PaAlsaStreamComponent, ptr %178, i32 0, i32 11
  store ptr %176, ptr %179, align 8, !tbaa !101
  %180 = load i32, ptr %8, align 4, !tbaa !8
  store i32 %180, ptr %4, align 4
  store i32 1, ptr %15, align 4
  br label %182

181:                                              ; preds = %171, %101, %32
  br label %175

182:                                              ; preds = %175, %171, %101
  call void @llvm.lifetime.end.p0(i64 8, ptr %13) #17
  call void @llvm.lifetime.end.p0(i64 8, ptr %12) #17
  call void @llvm.lifetime.end.p0(i64 8, ptr %11) #17
  call void @llvm.lifetime.end.p0(i64 8, ptr %10) #17
  call void @llvm.lifetime.end.p0(i64 8, ptr %9) #17
  call void @llvm.lifetime.end.p0(i64 4, ptr %8) #17
  %183 = load i32, ptr %4, align 4
  ret i32 %183
}