; Function Attrs: nounwind uwtable
define internal i32 @ReadStream(ptr noundef %0, ptr noundef %1, i64 noundef %2) #2 {
  %4 = alloca i64, align 8
  %5 = alloca i64, align 8
  %6 = alloca ptr, align 8
  %7 = alloca i32, align 4
  call void @llvm.lifetime.start.p0(i64 8, ptr nonnull %4) #25
  call void @llvm.lifetime.start.p0(i64 8, ptr nonnull %5) #25
  call void @llvm.lifetime.start.p0(i64 8, ptr nonnull %6) #25
  %8 = getelementptr inbounds nuw i8, ptr %0, i64 832
  %9 = load ptr, ptr %8, align 8, !tbaa !130
  %10 = getelementptr inbounds nuw i8, ptr %0, i64 704
  %11 = load ptr, ptr %10, align 8, !tbaa !129
  %12 = icmp eq ptr %11, null
  br i1 %12, label %13, label %14, !prof !9

13:                                               ; preds = %3
  tail call void (ptr, ...) @PaUtil_DebugPrint(ptr noundef nonnull @.str.212) #25
  br label %.loopexit

14:                                               ; preds = %3
  store ptr null, ptr %8, align 8, !tbaa !130
  %15 = getelementptr inbounds nuw i8, ptr %0, i64 640
  %16 = load double, ptr %15, align 8, !tbaa !135
  %17 = fcmp ogt double %16, 0.000000e+00
  br i1 %17, label %18, label %19

18:                                               ; preds = %14
  store double 0.000000e+00, ptr %15, align 8, !tbaa !135
  br label %19

19:                                               ; preds = %18, %14
  %.031 = phi i32 [ -9981, %18 ], [ 0, %14 ]
  %20 = getelementptr inbounds nuw i8, ptr %0, i64 664
  %21 = load i32, ptr %20, align 8, !tbaa !136
  %.not = icmp eq i32 %21, 0
  br i1 %.not, label %22, label %29

22:                                               ; preds = %19
  %23 = getelementptr inbounds nuw i8, ptr %0, i64 744
  %24 = load ptr, ptr %23, align 8, !tbaa !137
  %25 = getelementptr inbounds nuw i8, ptr %0, i64 656
  %26 = load i32, ptr %25, align 8, !tbaa !138
  %27 = sext i32 %26 to i64
  %28 = shl nsw i64 %27, 3
  tail call void @llvm.memcpy.p0.p0.i64(ptr align 1 %24, ptr align 1 %1, i64 %28, i1 false)
  %.pre = load ptr, ptr %10, align 8, !tbaa !129
  br label %29

29:                                               ; preds = %19, %22
  %30 = phi ptr [ %.pre, %22 ], [ %11, %19 ]
  %.sink = phi ptr [ %24, %22 ], [ %1, %19 ]
  store ptr %.sink, ptr %6, align 8, !tbaa !7
  %31 = tail call i32 @snd_pcm_state(ptr noundef %30) #25, !callees !139
  %32 = icmp eq i32 %31, 2
  br i1 %32, label %33, label %.thread

33:                                               ; preds = %29
  %34 = load ptr, ptr %10, align 8, !tbaa !129
  %35 = tail call i32 @snd_pcm_start(ptr noundef %34) #25, !callees !140
  %36 = icmp slt i32 %35, 0
  br i1 %36, label %37, label %.thread, !prof !9

37:                                               ; preds = %33
  %38 = tail call i64 @pthread_self() #28
  %39 = load i64, ptr @paUnixMainThread, align 8, !tbaa !108
  %.not51 = icmp eq i64 %38, %39
  br i1 %.not51, label %40, label %43

40:                                               ; preds = %37
  %41 = sext i32 %35 to i64
  %42 = tail call ptr @snd_strerror(i32 noundef %35) #25, !callees !109
  tail call void @PaUtil_SetLastHostErrorInfo(i32 noundef 8, i64 noundef %41, ptr noundef %42) #25
  br label %43

43:                                               ; preds = %37, %40
  tail call void (ptr, ...) @PaUtil_DebugPrint(ptr noundef nonnull @.str.213) #25
  br label %.loopexit

.thread:                                          ; preds = %33, %29
  %.not3752 = icmp eq i64 %2, 0
  br i1 %.not3752, label %.loopexit, label %.lr.ph

.lr.ph:                                           ; preds = %.thread
  %44 = getelementptr inbounds nuw i8, ptr %0, i64 104
  br label %45

45:                                               ; preds = %.lr.ph, %61
  %.02953 = phi i64 [ %2, %.lr.ph ], [ %.130, %61 ]
  call void @llvm.lifetime.start.p0(i64 4, ptr nonnull %7) #25
  store i32 0, ptr %7, align 4, !tbaa !3
  %46 = call fastcc i32 @PaAlsaStream_WaitForFrames(ptr noundef %0, ptr noundef %5, ptr noundef %7)
  store i32 %46, ptr @paUtilErr_, align 4, !tbaa !3
  %47 = icmp slt i32 %46, 0
  br i1 %47, label %.thread46, label %48, !prof !9

48:                                               ; preds = %45
  %49 = load i64, ptr %5, align 8, !tbaa !108
  %50 = call i64 @llvm.umin.i64(i64 %49, i64 %.02953)
  store i64 %50, ptr %4, align 8, !tbaa !108
  %51 = call fastcc i32 @PaAlsaStream_SetUpBuffers(ptr noundef %0, ptr noundef %4, ptr noundef %7)
  store i32 %51, ptr @paUtilErr_, align 4, !tbaa !3
  %52 = icmp slt i32 %51, 0
  br i1 %52, label %.thread46, label %53, !prof !9

53:                                               ; preds = %48
  %54 = load i64, ptr %4, align 8, !tbaa !108
  %.not38 = icmp eq i64 %54, 0
  br i1 %.not38, label %61, label %55

55:                                               ; preds = %53
  %56 = call i64 @PaUtil_CopyInput(ptr noundef nonnull %44, ptr noundef nonnull %6, i64 noundef %54) #25
  store i64 %56, ptr %4, align 8, !tbaa !108
  %57 = call fastcc i32 @PaAlsaStream_EndProcessing(ptr noundef %0, i64 noundef %56, ptr noundef %7)
  store i32 %57, ptr @paUtilErr_, align 4, !tbaa !3
  %58 = icmp slt i32 %57, 0
  br i1 %58, label %.thread46, label %59, !prof !9

59:                                               ; preds = %55
  %60 = sub i64 %.02953, %56
  br label %61

.thread46:                                        ; preds = %55, %48, %45
  %.str.214.sink = phi ptr [ @.str.214, %45 ], [ @.str.215, %48 ], [ @.str.216, %55 ]
  call void (ptr, ...) @PaUtil_DebugPrint(ptr noundef nonnull %.str.214.sink) #25
  %.4.ph = load i32, ptr @paUtilErr_, align 4, !tbaa !3
  call void @llvm.lifetime.end.p0(i64 4, ptr nonnull %7) #25
  br label %.loopexit

61:                                               ; preds = %53, %59
  %.130 = phi i64 [ %60, %59 ], [ %.02953, %53 ]
  call void @llvm.lifetime.end.p0(i64 4, ptr nonnull %7) #25
  %.not37 = icmp eq i64 %.130, 0
  br i1 %.not37, label %.loopexit, label %45

.loopexit:                                        ; preds = %61, %.thread, %.thread46, %43, %13
  %.5 = phi i32 [ -9975, %13 ], [ -9999, %43 ], [ %.4.ph, %.thread46 ], [ %.031, %.thread ], [ %.031, %61 ]
  store ptr %9, ptr %8, align 8, !tbaa !130
  call void @llvm.lifetime.end.p0(i64 8, ptr nonnull %6) #25
  call void @llvm.lifetime.end.p0(i64 8, ptr nonnull %5) #25
  call void @llvm.lifetime.end.p0(i64 8, ptr nonnull %4) #25
  ret i32 %.5
}